target datalayout = "e-m:e-p270:32:32-p271:32:32-p272:64:64-i64:64-i128:128-f80:128-n8:16:32:64-S128"
target triple = "x86_64-pc-linux-gnu"

; Function Attrs: nounwind uwtable
define internal void @draw_sample_cline_rgba_scale(ptr noundef %0, i32 noundef %1, i32 noundef %2, ptr noundef %3, ptr noundef %4, i32 noundef %5) #1 {
  %7 = alloca ptr, align 8
  %8 = alloca i32, align 4
  %9 = alloca i32, align 4
  %10 = alloca ptr, align 8
  %11 = alloca ptr, align 8
  %12 = alloca i32, align 4
  %13 = alloca i32, align 4
  %14 = alloca i32, align 4
  %15 = alloca ptr, align 8
  %16 = alloca i32, align 4
  store ptr %0, ptr %7, align 8, !tbaa !69
  store i32 %1, ptr %8, align 4, !tbaa !49
  store i32 %2, ptr %9, align 4, !tbaa !49
  store ptr %3, ptr %10, align 8, !tbaa !92
  store ptr %4, ptr %11, align 8, !tbaa !69
  store i32 %5, ptr %12, align 4, !tbaa !49
  call void @llvm.lifetime.start.p0(i64 4, ptr %13) #13
  %17 = load i32, ptr %8, align 4, !tbaa !49
  %18 = load i32, ptr %12, align 4, !tbaa !49
  %19 = sub nsw i32 %17, %18
  %20 = sdiv i32 %19, 2
  store i32 %20, ptr %13, align 4, !tbaa !49
  call void @llvm.lifetime.start.p0(i64 4, ptr %14) #13
  %21 = load i32, ptr %13, align 4, !tbaa !49
  %22 = load i32, ptr %12, align 4, !tbaa !49
  %23 = add nsw i32 %21, %22
  store i32 %23, ptr %14, align 4, !tbaa !49
  call void @llvm.lifetime.start.p0(i64 8, ptr %15) #13
  %24 = load ptr, ptr %7, align 8, !tbaa !69
  %25 = load i32, ptr %13, align 4, !tbaa !49
  %26 = load i32, ptr %9, align 4, !tbaa !49
  %27 = mul nsw i32 %25, %26
  %28 = sext i32 %27 to i64
  %29 = getelementptr inbounds i8, ptr %24, i64 %28
  store ptr %29, ptr %15, align 8, !tbaa !69
  call void @llvm.lifetime.start.p0(i64 4, ptr %16) #13
  %30 = load i32, ptr %13, align 4, !tbaa !49
  store i32 %30, ptr %16, align 4, !tbaa !49
  br label %31

31:                                               ; preds = %77, %6
  %32 = load i32, ptr %16, align 4, !tbaa !49
  %33 = load i32, ptr %14, align 4, !tbaa !49
  %34 = icmp slt i32 %32, %33
  br i1 %34, label %36, label %35

35:                                               ; preds = %31
  call void @llvm.lifetime.end.p0(i64 4, ptr %16) #13
  br label %84

36:                                               ; preds = %31
  %37 = load ptr, ptr %11, align 8, !tbaa !69
  %38 = getelementptr inbounds i8, ptr %37, i64 0
  %39 = load i8, ptr %38, align 1, !tbaa !89
  %40 = zext i8 %39 to i32
  %41 = load ptr, ptr %15, align 8, !tbaa !69
  %42 = getelementptr inbounds i8, ptr %41, i64 0
  %43 = load i8, ptr %42, align 1, !tbaa !89
  %44 = zext i8 %43 to i32
  %45 = add nsw i32 %44, %40
  %46 = trunc i32 %45 to i8
  store i8 %46, ptr %42, align 1, !tbaa !89
  %47 = load ptr, ptr %11, align 8, !tbaa !69
  %48 = getelementptr inbounds i8, ptr %47, i64 1
  %49 = load i8, ptr %48, align 1, !tbaa !89
  %50 = zext i8 %49 to i32
  %51 = load ptr, ptr %15, align 8, !tbaa !69
  %52 = getelementptr inbounds i8, ptr %51, i64 1
  %53 = load i8, ptr %52, align 1, !tbaa !89
  %54 = zext i8 %53 to i32
  %55 = add nsw i32 %54, %50
  %56 = trunc i32 %55 to i8
  store i8 %56, ptr %52, align 1, !tbaa !89
  %57 = load ptr, ptr %11, align 8, !tbaa !69
  %58 = getelementptr inbounds i8, ptr %57, i64 2
  %59 = load i8, ptr %58, align 1, !tbaa !89
  %60 = zext i8 %59 to i32
  %61 = load ptr, ptr %15, align 8, !tbaa !69
  %62 = getelementptr inbounds i8, ptr %61, i64 2
  %63 = load i8, ptr %62, align 1, !tbaa !89
  %64 = zext i8 %63 to i32
  %65 = add nsw i32 %64, %60
  %66 = trunc i32 %65 to i8
  store i8 %66, ptr %62, align 1, !tbaa !89
  %67 = load ptr, ptr %11, align 8, !tbaa !69
  %68 = getelementptr inbounds i8, ptr %67, i64 3
  %69 = load i8, ptr %68, align 1, !tbaa !89
  %70 = zext i8 %69 to i32
  %71 = load ptr, ptr %15, align 8, !tbaa !69
  %72 = getelementptr inbounds i8, ptr %71, i64 3
  %73 = load i8, ptr %72, align 1, !tbaa !89
  %74 = zext i8 %73 to i32
  %75 = add nsw i32 %74, %70
  %76 = trunc i32 %75 to i8
  store i8 %76, ptr %72, align 1, !tbaa !89
  br label %77

77:                                               ; preds = %36
  %78 = load i32, ptr %16, align 4, !tbaa !49
  %79 = add nsw i32 %78, 1
  store i32 %79, ptr %16, align 4, !tbaa !49
  %80 = load i32, ptr %9, align 4, !tbaa !49
  %81 = load ptr, ptr %15, align 8, !tbaa !69
  %82 = sext i32 %80 to i64
  %83 = getelementptr inbounds i8, ptr %81, i64 %82
  store ptr %83, ptr %15, align 8, !tbaa !69
  br label %31, !llvm.loop !102

84:                                               ; preds = %35
  call void @llvm.lifetime.end.p0(i64 8, ptr %15) #13
  call void @llvm.lifetime.end.p0(i64 4, ptr %14) #13
  call void @llvm.lifetime.end.p0(i64 4, ptr %13) #13
  ret void
}