; Function Attrs: nofree norecurse nosync nounwind memory(argmem: readwrite) uwtable
define internal void @draw_sample_cline_rgba_scale(ptr noundef captures(none) %0, i32 noundef %1, i32 noundef %2, ptr readnone captures(none) %3, ptr noundef readonly captures(none) %4, i32 noundef %5) #7 {
  %7 = sub nsw i32 %1, %5
  %8 = sdiv i32 %7, 2
  %9 = add nsw i32 %8, %5
  %10 = icmp sgt i32 %5, 0
  br i1 %10, label %.lver.check, label %._crit_edge

.lver.check:                                      ; preds = %6
  %11 = mul nsw i32 %8, %2
  %12 = sext i32 %11 to i64
  %13 = getelementptr inbounds i8, ptr %0, i64 %12
  %14 = getelementptr inbounds nuw i8, ptr %4, i64 1
  %15 = getelementptr inbounds nuw i8, ptr %4, i64 2
  %16 = getelementptr inbounds nuw i8, ptr %4, i64 3
  %17 = sext i32 %2 to i64
  %ident.check.not = icmp eq i32 %2, 1
  br i1 %ident.check.not, label %.ph, label %.ph.lver.orig

.ph.lver.orig:                                    ; preds = %.lver.check, %.ph.lver.orig
  %.022.lver.orig = phi i32 [ %33, %.ph.lver.orig ], [ %8, %.lver.check ]
  %.02021.lver.orig = phi ptr [ %34, %.ph.lver.orig ], [ %13, %.lver.check ]
  %18 = load i8, ptr %4, align 1, !tbaa !96
  %19 = load i8, ptr %.02021.lver.orig, align 1, !tbaa !96
  %20 = add i8 %19, %18
  store i8 %20, ptr %.02021.lver.orig, align 1, !tbaa !96
  %21 = load i8, ptr %14, align 1, !tbaa !96
  %22 = getelementptr inbounds nuw i8, ptr %.02021.lver.orig, i64 1
  %23 = load i8, ptr %22, align 1, !tbaa !96
  %24 = add i8 %23, %21
  store i8 %24, ptr %22, align 1, !tbaa !96
  %25 = load i8, ptr %15, align 1, !tbaa !96
  %26 = getelementptr inbounds nuw i8, ptr %.02021.lver.orig, i64 2
  %27 = load i8, ptr %26, align 1, !tbaa !96
  %28 = add i8 %27, %25
  store i8 %28, ptr %26, align 1, !tbaa !96
  %29 = load i8, ptr %16, align 1, !tbaa !96
  %30 = getelementptr inbounds nuw i8, ptr %.02021.lver.orig, i64 3
  %31 = load i8, ptr %30, align 1, !tbaa !96
  %32 = add i8 %31, %29
  store i8 %32, ptr %30, align 1, !tbaa !96
  %33 = add nsw i32 %.022.lver.orig, 1
  %34 = getelementptr inbounds i8, ptr %.02021.lver.orig, i64 %17
  %35 = icmp slt i32 %33, %9
  br i1 %35, label %.ph.lver.orig, label %._crit_edge, !llvm.loop !106

.ph:                                              ; preds = %.lver.check
  %36 = sext i32 %8 to i64
  %37 = getelementptr i8, ptr %0, i64 %36
  %scevgep = getelementptr i8, ptr %37, i64 2
  %load_initial = load i8, ptr %scevgep, align 1
  br label %38

._crit_edge:                                      ; preds = %.ph.lver.orig, %38, %6
  ret void

38:                                               ; preds = %.ph, %38
  %store_forwarded = phi i8 [ %load_initial, %.ph ], [ %52, %38 ]
  %.022 = phi i32 [ %8, %.ph ], [ %53, %38 ]
  %.02021 = phi ptr [ %13, %.ph ], [ %54, %38 ]
  %39 = load i8, ptr %4, align 1, !tbaa !96
  %40 = load i8, ptr %.02021, align 1, !tbaa !96
  %41 = add i8 %40, %39
  store i8 %41, ptr %.02021, align 1, !tbaa !96
  %42 = load i8, ptr %14, align 1, !tbaa !96
  %43 = getelementptr inbounds nuw i8, ptr %.02021, i64 1
  %44 = load i8, ptr %43, align 1, !tbaa !96
  %45 = add i8 %44, %42
  store i8 %45, ptr %43, align 1, !tbaa !96
  %46 = load i8, ptr %15, align 1, !tbaa !96
  %47 = getelementptr inbounds nuw i8, ptr %.02021, i64 2
  %48 = add i8 %store_forwarded, %46
  store i8 %48, ptr %47, align 1, !tbaa !96
  %49 = load i8, ptr %16, align 1, !tbaa !96
  %50 = getelementptr inbounds nuw i8, ptr %.02021, i64 3
  %51 = load i8, ptr %50, align 1, !tbaa !96
  %52 = add i8 %51, %49
  store i8 %52, ptr %50, align 1, !tbaa !96
  %53 = add nsw i32 %.022, 1
  %54 = getelementptr inbounds nuw i8, ptr %.02021, i64 %17
  %55 = icmp slt i32 %53, %9
  br i1 %55, label %38, label %._crit_edge, !llvm.loop !106
}